target datalayout = "e-m:e-p270:32:32-p271:32:32-p272:64:64-i64:64-i128:128-f80:128-n8:16:32:64-S128"
target triple = "x86_64-pc-linux-gnu"

%struct.darktable_t = type { %struct.dt_codepath_t, i32, i32, ptr, ptr, ptr, ptr, ptr, ptr, ptr, ptr, ptr, ptr, ptr, ptr, ptr, ptr, ptr, ptr, ptr, ptr, ptr, ptr, ptr, ptr, ptr, ptr, ptr, ptr, ptr, [64 x %struct.dt_pthread_mutex_t], %struct.dt_pthread_mutex_t, %struct.dt_pthread_mutex_t, %struct.dt_pthread_mutex_t, %struct.dt_pthread_mutex_t, %struct.dt_pthread_mutex_t, ptr, ptr, ptr, ptr, ptr, ptr, ptr, ptr, ptr, ptr, ptr, ptr, ptr, %struct.dt_lua_state_t, ptr, double, ptr, i32, [47 x i32], i32, i32, ptr, ptr, %struct.dt_sys_resources_t, %struct.dt_backthumb_t, %struct.dt_gimp_t }
%struct.dt_codepath_t = type { i8, [3 x i8] }
%struct.dt_pthread_mutex_t = type { %union.pthread_mutex_t }
%union.pthread_mutex_t = type { %struct.__pthread_mutex_s }
%struct.__pthread_mutex_s = type { i32, i32, i32, i32, i32, i16, i16, %struct.__pthread_internal_list }
%struct.__pthread_internal_list = type { ptr, ptr }
%struct.dt_lua_state_t = type { i32 }
%struct.dt_sys_resources_t = type { i64, i64, ptr, ptr, i32 }
%struct.dt_backthumb_t = type { double, double, i32, i32, i32, i32 }
%struct.dt_gimp_t = type { i32, ptr, ptr, i32, i32 }

@darktable = external global %struct.darktable_t, align 8
@.str.2 = private unnamed_addr constant [41 x i8] c"[sql] %s:%d, function %s(): prepare \22%s\22\00", align 1
@.str.3 = private unnamed_addr constant [112 x i8] c"generated/home/dtcxzyw/WorkSpace/Projects/compilers/llvm-opt-benchmark/bench/darktable/darktable/src/libs/lib.c\00", align 1
@stderr = external global ptr, align 8
@.str.5 = private unnamed_addr constant [53 x i8] c"sqlite3 error: %s:%d, function %s(), query \22%s\22: %s\0A\00", align 1
@.str.6 = private unnamed_addr constant [41 x i8] c"sqlite3 error: %s:%d, function %s(): %s\0A\00", align 1
@__FUNCTION__.dt_lib_presets_add = private unnamed_addr constant [19 x i8] c"dt_lib_presets_add\00", align 1

; Function Attrs: nounwind uwtable
define void @dt_lib_presets_add(ptr noundef %0, ptr noundef %1, i32 noundef %2, ptr noundef %3, i32 noundef %4, i32 noundef %5, i32 noundef %6) #0 {
  %8 = alloca ptr, align 8
  %9 = alloca ptr, align 8
  %10 = alloca i32, align 4
  %11 = alloca ptr, align 8
  %12 = alloca i32, align 4
  %13 = alloca i32, align 4
  %14 = alloca i32, align 4
  %15 = alloca ptr, align 8
  %16 = alloca i32, align 4
  %17 = alloca i32, align 4
  %18 = alloca i32, align 4
  %19 = alloca i32, align 4
  %20 = alloca i32, align 4
  %21 = alloca i32, align 4
  %22 = alloca i32, align 4
  %23 = alloca i32, align 4
  %24 = alloca i32, align 4
  store ptr %0, ptr %8, align 8, !tbaa !63
  store ptr %1, ptr %9, align 8, !tbaa !63
  store i32 %2, ptr %10, align 4, !tbaa !62
  store ptr %3, ptr %11, align 8, !tbaa !76
  store i32 %4, ptr %12, align 4, !tbaa !62
  store i32 %5, ptr %13, align 4, !tbaa !62
  store i32 %6, ptr %14, align 4, !tbaa !62
  %25 = load ptr, ptr %8, align 8, !tbaa !63
  %26 = load ptr, ptr %9, align 8, !tbaa !63
  %27 = load i32, ptr %10, align 4, !tbaa !62
  call void @dt_lib_presets_remove(ptr noundef %25, ptr noundef %26, i32 noundef %27)
  call void @llvm.lifetime.start.p0(i64 8, ptr %15) #12
  br label %28

28:                                               ; preds = %7
  br label %29

29:                                               ; preds = %28
  %30 = load i32, ptr getelementptr inbounds nuw (%struct.darktable_t, ptr @darktable, i32 0, i32 2), align 8, !tbaa !21
  %31 = and i32 256, %30
  %32 = icmp ne i32 %31, 0
  br i1 %32, label %33, label %39

33:                                               ; preds = %29
  %34 = load i32, ptr getelementptr inbounds nuw (%struct.darktable_t, ptr @darktable, i32 0, i32 2), align 8, !tbaa !21
  %35 = xor i32 %34, -1
  %36 = and i32 0, %35
  %37 = icmp ne i32 %36, 0
  br i1 %37, label %39, label %38

38:                                               ; preds = %33
  call void (ptr, ...) @dt_print_ext(ptr noundef @.str.2, ptr noundef @.str.3, i32 noundef 1409, ptr noundef @__FUNCTION__.dt_lib_presets_add, ptr noundef @.str.47)
  br label %39

39:                                               ; preds = %38, %33, %29
  br label %40

40:                                               ; preds = %39
  br label %41

41:                                               ; preds = %40
  call void @llvm.lifetime.start.p0(i64 4, ptr %16) #12
  %42 = load ptr, ptr getelementptr inbounds nuw (%struct.darktable_t, ptr @darktable, i32 0, i32 18), align 8, !tbaa !68
  %43 = call ptr @dt_database_get(ptr noundef %42)
  %44 = call i32 @sqlite3_prepare_v2(ptr noundef %43, ptr noundef @.str.47, i32 noundef -1, ptr noundef %15, ptr noundef null)
  store i32 %44, ptr %16, align 4, !tbaa !62
  %45 = load i32, ptr %16, align 4, !tbaa !62
  %46 = icmp ne i32 %45, 0
  br i1 %46, label %47, label %53

47:                                               ; preds = %41
  %48 = load ptr, ptr @stderr, align 8, !tbaa !69
  %49 = load ptr, ptr getelementptr inbounds nuw (%struct.darktable_t, ptr @darktable, i32 0, i32 18), align 8, !tbaa !68
  %50 = call ptr @dt_database_get(ptr noundef %49)
  %51 = call ptr @sqlite3_errmsg(ptr noundef %50)
  %52 = call i32 (ptr, ptr, ...) @fprintf(ptr noundef %48, ptr noundef @.str.5, ptr noundef @.str.3, i32 noundef 1409, ptr noundef @__FUNCTION__.dt_lib_presets_add, ptr noundef @.str.47, ptr noundef %51) #12
  br label %53

53:                                               ; preds = %47, %41
  call void @llvm.lifetime.end.p0(i64 4, ptr %16) #12
  br label %54

54:                                               ; preds = %53
  br label %55

55:                                               ; preds = %54
  call void @llvm.lifetime.start.p0(i64 4, ptr %17) #12
  %56 = load i32, ptr %14, align 4, !tbaa !62
  %57 = icmp eq i32 %56, 0
  %58 = select i1 %57, i32 0, i32 1
  store i32 %58, ptr %17, align 4, !tbaa !62
  call void @llvm.lifetime.start.p0(i64 4, ptr %18) #12
  %59 = load ptr, ptr %15, align 8, !tbaa !71
  %60 = load ptr, ptr %8, align 8, !tbaa !63
  %61 = call i32 @sqlite3_bind_text(ptr noundef %59, i32 noundef 1, ptr noundef %60, i32 noundef -1, ptr noundef inttoptr (i64 -1 to ptr))
  store i32 %61, ptr %18, align 4, !tbaa !62
  %62 = load i32, ptr %18, align 4, !tbaa !62
  %63 = icmp ne i32 %62, 0
  br i1 %63, label %64, label %70

64:                                               ; preds = %55
  %65 = load ptr, ptr @stderr, align 8, !tbaa !69
  %66 = load ptr, ptr getelementptr inbounds nuw (%struct.darktable_t, ptr @darktable, i32 0, i32 18), align 8, !tbaa !68
  %67 = call ptr @dt_database_get(ptr noundef %66)
  %68 = call ptr @sqlite3_errmsg(ptr noundef %67)
  %69 = call i32 (ptr, ptr, ...) @fprintf(ptr noundef %65, ptr noundef @.str.6, ptr noundef @.str.3, i32 noundef 1414, ptr noundef @__FUNCTION__.dt_lib_presets_add, ptr noundef %68) #12
  br label %70

70:                                               ; preds = %64, %55
  call void @llvm.lifetime.end.p0(i64 4, ptr %18) #12
  call void @llvm.lifetime.start.p0(i64 4, ptr %19) #12
  %71 = load ptr, ptr %15, align 8, !tbaa !71
  %72 = load ptr, ptr %9, align 8, !tbaa !63
  %73 = call i32 @sqlite3_bind_text(ptr noundef %71, i32 noundef 2, ptr noundef %72, i32 noundef -1, ptr noundef inttoptr (i64 -1 to ptr))
  store i32 %73, ptr %19, align 4, !tbaa !62
  %74 = load i32, ptr %19, align 4, !tbaa !62
  %75 = icmp ne i32 %74, 0
  br i1 %75, label %76, label %82

76:                                               ; preds = %70
  %77 = load ptr, ptr @stderr, align 8, !tbaa !69
  %78 = load ptr, ptr getelementptr inbounds nuw (%struct.darktable_t, ptr @darktable, i32 0, i32 18), align 8, !tbaa !68
  %79 = call ptr @dt_database_get(ptr noundef %78)
  %80 = call ptr @sqlite3_errmsg(ptr noundef %79)
  %81 = call i32 (ptr, ptr, ...) @fprintf(ptr noundef %77, ptr noundef @.str.6, ptr noundef @.str.3, i32 noundef 1415, ptr noundef @__FUNCTION__.dt_lib_presets_add, ptr noundef %80) #12
  br label %82

82:                                               ; preds = %76, %70
  call void @llvm.lifetime.end.p0(i64 4, ptr %19) #12
  call void @llvm.lifetime.start.p0(i64 4, ptr %20) #12
  %83 = load ptr, ptr %15, align 8, !tbaa !71
  %84 = load i32, ptr %10, align 4, !tbaa !62
  %85 = call i32 @sqlite3_bind_int(ptr noundef %83, i32 noundef 3, i32 noundef %84)
  store i32 %85, ptr %20, align 4, !tbaa !62
  %86 = load i32, ptr %20, align 4, !tbaa !62
  %87 = icmp ne i32 %86, 0
  br i1 %87, label %88, label %94

88:                                               ; preds = %82
  %89 = load ptr, ptr @stderr, align 8, !tbaa !69
  %90 = load ptr, ptr getelementptr inbounds nuw (%struct.darktable_t, ptr @darktable, i32 0, i32 18), align 8, !tbaa !68
  %91 = call ptr @dt_database_get(ptr noundef %90)
  %92 = call ptr @sqlite3_errmsg(ptr noundef %91)
  %93 = call i32 (ptr, ptr, ...) @fprintf(ptr noundef %89, ptr noundef @.str.6, ptr noundef @.str.3, i32 noundef 1416, ptr noundef @__FUNCTION__.dt_lib_presets_add, ptr noundef %92) #12
  br label %94

94:                                               ; preds = %88, %82
  call void @llvm.lifetime.end.p0(i64 4, ptr %20) #12
  call void @llvm.lifetime.start.p0(i64 4, ptr %21) #12
  %95 = load ptr, ptr %15, align 8, !tbaa !71
  %96 = load ptr, ptr %11, align 8, !tbaa !76
  %97 = load i32, ptr %12, align 4, !tbaa !62
  %98 = call i32 @sqlite3_bind_blob(ptr noundef %95, i32 noundef 4, ptr noundef %96, i32 noundef %97, ptr noundef inttoptr (i64 -1 to ptr))
  store i32 %98, ptr %21, align 4, !tbaa !62
  %99 = load i32, ptr %21, align 4, !tbaa !62
  %100 = icmp ne i32 %99, 0
  br i1 %100, label %101, label %107

101:                                              ; preds = %94
  %102 = load ptr, ptr @stderr, align 8, !tbaa !69
  %103 = load ptr, ptr getelementptr inbounds nuw (%struct.darktable_t, ptr @darktable, i32 0, i32 18), align 8, !tbaa !68
  %104 = call ptr @dt_database_get(ptr noundef %103)
  %105 = call ptr @sqlite3_errmsg(ptr noundef %104)
  %106 = call i32 (ptr, ptr, ...) @fprintf(ptr noundef %102, ptr noundef @.str.6, ptr noundef @.str.3, i32 noundef 1417, ptr noundef @__FUNCTION__.dt_lib_presets_add, ptr noundef %105) #12
  br label %107

107:                                              ; preds = %101, %94
  call void @llvm.lifetime.end.p0(i64 4, ptr %21) #12
  call void @llvm.lifetime.start.p0(i64 4, ptr %22) #12
  %108 = load ptr, ptr %15, align 8, !tbaa !71
  %109 = load i32, ptr %13, align 4, !tbaa !62
  %110 = call i32 @sqlite3_bind_int(ptr noundef %108, i32 noundef 5, i32 noundef %109)
  store i32 %110, ptr %22, align 4, !tbaa !62
  %111 = load i32, ptr %22, align 4, !tbaa !62
  %112 = icmp ne i32 %111, 0
  br i1 %112, label %113, label %119

113:                                              ; preds = %107
  %114 = load ptr, ptr @stderr, align 8, !tbaa !69
  %115 = load ptr, ptr getelementptr inbounds nuw (%struct.darktable_t, ptr @darktable, i32 0, i32 18), align 8, !tbaa !68
  %116 = call ptr @dt_database_get(ptr noundef %115)
  %117 = call ptr @sqlite3_errmsg(ptr noundef %116)
  %118 = call i32 (ptr, ptr, ...) @fprintf(ptr noundef %114, ptr noundef @.str.6, ptr noundef @.str.3, i32 noundef 1418, ptr noundef @__FUNCTION__.dt_lib_presets_add, ptr noundef %117) #12
  br label %119

119:                                              ; preds = %113, %107
  call void @llvm.lifetime.end.p0(i64 4, ptr %22) #12
  call void @llvm.lifetime.start.p0(i64 4, ptr %23) #12
  %120 = load ptr, ptr %15, align 8, !tbaa !71
  %121 = load i32, ptr %17, align 4, !tbaa !62
  %122 = call i32 @sqlite3_bind_int(ptr noundef %120, i32 noundef 6, i32 noundef %121)
  store i32 %122, ptr %23, align 4, !tbaa !62
  %123 = load i32, ptr %23, align 4, !tbaa !62
  %124 = icmp ne i32 %123, 0
  br i1 %124, label %125, label %131

125:                                              ; preds = %119
  %126 = load ptr, ptr @stderr, align 8, !tbaa !69
  %127 = load ptr, ptr getelementptr inbounds nuw (%struct.darktable_t, ptr @darktable, i32 0, i32 18), align 8, !tbaa !68
  %128 = call ptr @dt_database_get(ptr noundef %127)
  %129 = call ptr @sqlite3_errmsg(ptr noundef %128)
  %130 = call i32 (ptr, ptr, ...) @fprintf(ptr noundef %126, ptr noundef @.str.6, ptr noundef @.str.3, i32 noundef 1419, ptr noundef @__FUNCTION__.dt_lib_presets_add, ptr noundef %129) #12
  br label %131

131:                                              ; preds = %125, %119
  call void @llvm.lifetime.end.p0(i64 4, ptr %23) #12
  call void @llvm.lifetime.start.p0(i64 4, ptr %24) #12
  %132 = load ptr, ptr %15, align 8, !tbaa !71
  %133 = load i32, ptr %14, align 4, !tbaa !62
  %134 = call i32 @sqlite3_bind_int(ptr noundef %132, i32 noundef 7, i32 noundef %133)
  store i32 %134, ptr %24, align 4, !tbaa !62
  %135 = load i32, ptr %24, align 4, !tbaa !62
  %136 = icmp ne i32 %135, 0
  br i1 %136, label %137, label %143

137:                                              ; preds = %131
  %138 = load ptr, ptr @stderr, align 8, !tbaa !69
  %139 = load ptr, ptr getelementptr inbounds nuw (%struct.darktable_t, ptr @darktable, i32 0, i32 18), align 8, !tbaa !68
  %140 = call ptr @dt_database_get(ptr noundef %139)
  %141 = call ptr @sqlite3_errmsg(ptr noundef %140)
  %142 = call i32 (ptr, ptr, ...) @fprintf(ptr noundef %138, ptr noundef @.str.6, ptr noundef @.str.3, i32 noundef 1420, ptr noundef @__FUNCTION__.dt_lib_presets_add, ptr noundef %141) #12
  br label %143

143:                                              ; preds = %137, %131
  call void @llvm.lifetime.end.p0(i64 4, ptr %24) #12
  %144 = load ptr, ptr %15, align 8, !tbaa !71
  %145 = call i32 @sqlite3_step(ptr noundef %144)
  %146 = load ptr, ptr %15, align 8, !tbaa !71
  %147 = call i32 @sqlite3_finalize(ptr noundef %146)
  call void @llvm.lifetime.end.p0(i64 4, ptr %17) #12
  call void @llvm.lifetime.end.p0(i64 8, ptr %15) #12
  ret void
}