; Function Attrs: nounwind uwtable
define void @dt_lib_presets_add(ptr noundef %0, ptr noundef %1, i32 noundef %2, ptr noundef %3, i32 noundef %4, i32 noundef %5, i32 noundef %6) local_unnamed_addr #0 {
  %8 = alloca ptr, align 8
  tail call void @dt_lib_presets_remove(ptr noundef %0, ptr noundef %1, i32 noundef %2)
  call void @llvm.lifetime.start.p0(i64 8, ptr nonnull %8) #19
  %9 = load i32, ptr getelementptr inbounds nuw (i8, ptr @darktable, i64 8), align 8, !tbaa !59
  %10 = and i32 %9, 256
  %.not = icmp eq i32 %10, 0
  br i1 %.not, label %12, label %11

11:                                               ; preds = %7
  tail call void (ptr, ...) @dt_print_ext(ptr noundef nonnull @.str.2, ptr noundef nonnull @.str.3, i32 noundef 1409, ptr noundef nonnull @__FUNCTION__.dt_lib_presets_add, ptr noundef nonnull @.str.47) #19
  br label %12

12:                                               ; preds = %11, %7
  %13 = load ptr, ptr getelementptr inbounds nuw (i8, ptr @darktable, i64 136), align 8, !tbaa !60
  %14 = tail call ptr @dt_database_get(ptr noundef %13) #19
  %15 = call i32 @sqlite3_prepare_v2(ptr noundef %14, ptr noundef nonnull @.str.47, i32 noundef -1, ptr noundef nonnull %8, ptr noundef null) #19
  %.not19 = icmp eq i32 %15, 0
  br i1 %.not19, label %22, label %16

16:                                               ; preds = %12
  %17 = load ptr, ptr @stderr, align 8, !tbaa !61
  %18 = load ptr, ptr getelementptr inbounds nuw (i8, ptr @darktable, i64 136), align 8, !tbaa !60
  %19 = call ptr @dt_database_get(ptr noundef %18) #19
  %20 = call ptr @sqlite3_errmsg(ptr noundef %19) #19
  %21 = call i32 (ptr, ptr, ...) @fprintf(ptr noundef %17, ptr noundef nonnull @.str.5, ptr noundef nonnull @.str.3, i32 noundef 1409, ptr noundef nonnull @__FUNCTION__.dt_lib_presets_add, ptr noundef nonnull @.str.47, ptr noundef %20) #20
  br label %22

22:                                               ; preds = %16, %12
  %23 = icmp ne i32 %6, 0
  %24 = zext i1 %23 to i32
  %25 = load ptr, ptr %8, align 8, !tbaa !63
  %26 = call i32 @sqlite3_bind_text(ptr noundef %25, i32 noundef 1, ptr noundef %0, i32 noundef -1, ptr noundef nonnull inttoptr (i64 -1 to ptr)) #19
  %.not20 = icmp eq i32 %26, 0
  br i1 %.not20, label %33, label %27

27:                                               ; preds = %22
  %28 = load ptr, ptr @stderr, align 8, !tbaa !61
  %29 = load ptr, ptr getelementptr inbounds nuw (i8, ptr @darktable, i64 136), align 8, !tbaa !60
  %30 = call ptr @dt_database_get(ptr noundef %29) #19
  %31 = call ptr @sqlite3_errmsg(ptr noundef %30) #19
  %32 = call i32 (ptr, ptr, ...) @fprintf(ptr noundef %28, ptr noundef nonnull @.str.6, ptr noundef nonnull @.str.3, i32 noundef 1414, ptr noundef nonnull @__FUNCTION__.dt_lib_presets_add, ptr noundef %31) #20
  br label %33

33:                                               ; preds = %27, %22
  %34 = load ptr, ptr %8, align 8, !tbaa !63
  %35 = call i32 @sqlite3_bind_text(ptr noundef %34, i32 noundef 2, ptr noundef %1, i32 noundef -1, ptr noundef nonnull inttoptr (i64 -1 to ptr)) #19
  %.not21 = icmp eq i32 %35, 0
  br i1 %.not21, label %42, label %36

36:                                               ; preds = %33
  %37 = load ptr, ptr @stderr, align 8, !tbaa !61
  %38 = load ptr, ptr getelementptr inbounds nuw (i8, ptr @darktable, i64 136), align 8, !tbaa !60
  %39 = call ptr @dt_database_get(ptr noundef %38) #19
  %40 = call ptr @sqlite3_errmsg(ptr noundef %39) #19
  %41 = call i32 (ptr, ptr, ...) @fprintf(ptr noundef %37, ptr noundef nonnull @.str.6, ptr noundef nonnull @.str.3, i32 noundef 1415, ptr noundef nonnull @__FUNCTION__.dt_lib_presets_add, ptr noundef %40) #20
  br label %42

42:                                               ; preds = %36, %33
  %43 = load ptr, ptr %8, align 8, !tbaa !63
  %44 = call i32 @sqlite3_bind_int(ptr noundef %43, i32 noundef 3, i32 noundef %2) #19
  %.not22 = icmp eq i32 %44, 0
  br i1 %.not22, label %51, label %45

45:                                               ; preds = %42
  %46 = load ptr, ptr @stderr, align 8, !tbaa !61
  %47 = load ptr, ptr getelementptr inbounds nuw (i8, ptr @darktable, i64 136), align 8, !tbaa !60
  %48 = call ptr @dt_database_get(ptr noundef %47) #19
  %49 = call ptr @sqlite3_errmsg(ptr noundef %48) #19
  %50 = call i32 (ptr, ptr, ...) @fprintf(ptr noundef %46, ptr noundef nonnull @.str.6, ptr noundef nonnull @.str.3, i32 noundef 1416, ptr noundef nonnull @__FUNCTION__.dt_lib_presets_add, ptr noundef %49) #20
  br label %51

51:                                               ; preds = %45, %42
  %52 = load ptr, ptr %8, align 8, !tbaa !63
  %53 = call i32 @sqlite3_bind_blob(ptr noundef %52, i32 noundef 4, ptr noundef %3, i32 noundef %4, ptr noundef nonnull inttoptr (i64 -1 to ptr)) #19
  %.not23 = icmp eq i32 %53, 0
  br i1 %.not23, label %60, label %54

54:                                               ; preds = %51
  %55 = load ptr, ptr @stderr, align 8, !tbaa !61
  %56 = load ptr, ptr getelementptr inbounds nuw (i8, ptr @darktable, i64 136), align 8, !tbaa !60
  %57 = call ptr @dt_database_get(ptr noundef %56) #19
  %58 = call ptr @sqlite3_errmsg(ptr noundef %57) #19
  %59 = call i32 (ptr, ptr, ...) @fprintf(ptr noundef %55, ptr noundef nonnull @.str.6, ptr noundef nonnull @.str.3, i32 noundef 1417, ptr noundef nonnull @__FUNCTION__.dt_lib_presets_add, ptr noundef %58) #20
  br label %60

60:                                               ; preds = %54, %51
  %61 = load ptr, ptr %8, align 8, !tbaa !63
  %62 = call i32 @sqlite3_bind_int(ptr noundef %61, i32 noundef 5, i32 noundef %5) #19
  %.not24 = icmp eq i32 %62, 0
  br i1 %.not24, label %69, label %63

63:                                               ; preds = %60
  %64 = load ptr, ptr @stderr, align 8, !tbaa !61
  %65 = load ptr, ptr getelementptr inbounds nuw (i8, ptr @darktable, i64 136), align 8, !tbaa !60
  %66 = call ptr @dt_database_get(ptr noundef %65) #19
  %67 = call ptr @sqlite3_errmsg(ptr noundef %66) #19
  %68 = call i32 (ptr, ptr, ...) @fprintf(ptr noundef %64, ptr noundef nonnull @.str.6, ptr noundef nonnull @.str.3, i32 noundef 1418, ptr noundef nonnull @__FUNCTION__.dt_lib_presets_add, ptr noundef %67) #20
  br label %69

69:                                               ; preds = %63, %60
  %70 = load ptr, ptr %8, align 8, !tbaa !63
  %71 = call i32 @sqlite3_bind_int(ptr noundef %70, i32 noundef 6, i32 noundef %24) #19
  %.not25 = icmp eq i32 %71, 0
  br i1 %.not25, label %78, label %72

72:                                               ; preds = %69
  %73 = load ptr, ptr @stderr, align 8, !tbaa !61
  %74 = load ptr, ptr getelementptr inbounds nuw (i8, ptr @darktable, i64 136), align 8, !tbaa !60
  %75 = call ptr @dt_database_get(ptr noundef %74) #19
  %76 = call ptr @sqlite3_errmsg(ptr noundef %75) #19
  %77 = call i32 (ptr, ptr, ...) @fprintf(ptr noundef %73, ptr noundef nonnull @.str.6, ptr noundef nonnull @.str.3, i32 noundef 1419, ptr noundef nonnull @__FUNCTION__.dt_lib_presets_add, ptr noundef %76) #20
  br label %78

78:                                               ; preds = %72, %69
  %79 = load ptr, ptr %8, align 8, !tbaa !63
  %80 = call i32 @sqlite3_bind_int(ptr noundef %79, i32 noundef 7, i32 noundef %6) #19
  %.not26 = icmp eq i32 %80, 0
  br i1 %.not26, label %87, label %81

81:                                               ; preds = %78
  %82 = load ptr, ptr @stderr, align 8, !tbaa !61
  %83 = load ptr, ptr getelementptr inbounds nuw (i8, ptr @darktable, i64 136), align 8, !tbaa !60
  %84 = call ptr @dt_database_get(ptr noundef %83) #19
  %85 = call ptr @sqlite3_errmsg(ptr noundef %84) #19
  %86 = call i32 (ptr, ptr, ...) @fprintf(ptr noundef %82, ptr noundef nonnull @.str.6, ptr noundef nonnull @.str.3, i32 noundef 1420, ptr noundef nonnull @__FUNCTION__.dt_lib_presets_add, ptr noundef %85) #20
  br label %87

87:                                               ; preds = %81, %78
  %88 = load ptr, ptr %8, align 8, !tbaa !63
  %89 = call i32 @sqlite3_step(ptr noundef %88) #19
  %90 = load ptr, ptr %8, align 8, !tbaa !63
  %91 = call i32 @sqlite3_finalize(ptr noundef %90) #19
  call void @llvm.lifetime.end.p0(i64 8, ptr nonnull %8) #19
  ret void
}